; ModuleID = 'bench/openusd/original/computeCmds.cpp.ll'
source_filename = "bench/openusd/original/computeCmds.cpp.ll"
target datalayout = "e-m:e-p270:32:32-p271:32:32-p272:64:64-i64:64-i128:128-f80:128-n8:16:32:64-S128"
target triple = "x86_64-pc-linux-gnu"

@_ZTVN32pxrInternal_v0_24__pxrReserved__14HgiComputeCmdsE = unnamed_addr constant { [13 x ptr] } { [13 x ptr] [ptr null, ptr @_ZTIN32pxrInternal_v0_24__pxrReserved__14HgiComputeCmdsE, ptr @_ZN32pxrInternal_v0_24__pxrReserved__14HgiComputeCmdsD1Ev, ptr @_ZN32pxrInternal_v0_24__pxrReserved__14HgiComputeCmdsD0Ev, ptr @_ZN32pxrInternal_v0_24__pxrReserved__7HgiCmds7_SubmitEPNS_3HgiENS_17HgiSubmitWaitTypeE, ptr @__cxa_pure_virtual, ptr @__cxa_pure_virtual, ptr @__cxa_pure_virtual, ptr @__cxa_pure_virtual, ptr @__cxa_pure_virtual, ptr @__cxa_pure_virtual, ptr @__cxa_pure_virtual, ptr @__cxa_pure_virtual] }, align 8
@_ZTVN10__cxxabiv120__si_class_type_infoE = external global [0 x ptr]
@_ZTSN32pxrInternal_v0_24__pxrReserved__14HgiComputeCmdsE = constant [53 x i8] c"N32pxrInternal_v0_24__pxrReserved__14HgiComputeCmdsE\00", align 1
@_ZTIN32pxrInternal_v0_24__pxrReserved__7HgiCmdsE = external constant ptr
@_ZTIN32pxrInternal_v0_24__pxrReserved__14HgiComputeCmdsE = constant { ptr, ptr, ptr } { ptr getelementptr inbounds (ptr, ptr @_ZTVN10__cxxabiv120__si_class_type_infoE, i64 2), ptr @_ZTSN32pxrInternal_v0_24__pxrReserved__14HgiComputeCmdsE, ptr @_ZTIN32pxrInternal_v0_24__pxrReserved__7HgiCmdsE }, align 8

@_ZN32pxrInternal_v0_24__pxrReserved__14HgiComputeCmdsD1Ev = unnamed_addr alias void (ptr), ptr @_ZN32pxrInternal_v0_24__pxrReserved__14HgiComputeCmdsD2Ev

; Function Attrs: mustprogress uwtable
define void @_ZN32pxrInternal_v0_24__pxrReserved__14HgiComputeCmdsC2Ev(ptr noundef nonnull align 8 dereferenceable(9) %0) unnamed_addr #0 align 2 {
  tail call void @_ZN32pxrInternal_v0_24__pxrReserved__7HgiCmdsC2Ev(ptr noundef nonnull align 8 dereferenceable(9) %0)
  store ptr getelementptr inbounds inrange(-16, 88) (i8, ptr @_ZTVN32pxrInternal_v0_24__pxrReserved__14HgiComputeCmdsE, i64 16), ptr %0, align 8
  ret void
}

declare void @_ZN32pxrInternal_v0_24__pxrReserved__7HgiCmdsC2Ev(ptr noundef nonnull align 8 dereferenceable(9)) unnamed_addr #1

; Function Attrs: mustprogress nounwind uwtable
define void @_ZN32pxrInternal_v0_24__pxrReserved__14HgiComputeCmdsD2Ev(ptr noundef nonnull align 8 dereferenceable(9) %0) unnamed_addr #2 align 2 {
  tail call void @_ZN32pxrInternal_v0_24__pxrReserved__7HgiCmdsD2Ev(ptr noundef nonnull align 8 dereferenceable(9) %0) #6
  ret void
}

; Function Attrs: nounwind
declare void @_ZN32pxrInternal_v0_24__pxrReserved__7HgiCmdsD2Ev(ptr noundef nonnull align 8 dereferenceable(9)) unnamed_addr #3

; Function Attrs: cold mustprogress noreturn nounwind memory(inaccessiblemem: write) uwtable
define void @_ZN32pxrInternal_v0_24__pxrReserved__14HgiComputeCmdsD0Ev(ptr nocapture nonnull readnone align 8 %0) unnamed_addr #4 align 2 {
  tail call void @llvm.trap() #7
  unreachable
}

; Function Attrs: cold noreturn nounwind memory(inaccessiblemem: write)
declare void @llvm.trap() #5

declare noundef zeroext i1 @_ZN32pxrInternal_v0_24__pxrReserved__7HgiCmds7_SubmitEPNS_3HgiENS_17HgiSubmitWaitTypeE(ptr noundef nonnull align 8 dereferenceable(9), ptr noundef, i32 noundef) unnamed_addr #1

declare void @__cxa_pure_virtual() unnamed_addr


!llvm.module.flags = !{!0, !1, !2, !3}

!0 = !{i32 1, !"wchar_size", i32 4}
!1 = !{i32 8, !"PIC Level", i32 2}
!2 = !{i32 7, !"uwtable", i32 2}
!3 = !{i32 7, !"frame-pointer", i32 2}
